; Function Attrs: mustprogress uwtable
define void @_ZN13duckdb_brotli36BrotliCreateZopfliBackwardReferencesEPNS_13MemoryManagerEmmPKhmS3_PK19BrotliEncoderParamsPNS_6HasherEPiPmPNS_7CommandESA_SA_(ptr noundef %0, i64 noundef %1, i64 noundef %2, ptr noundef %3, i64 noundef %4, ptr noundef readonly captures(none) %5, ptr noundef readonly captures(none) %6, ptr noundef readonly captures(none) %7, ptr noundef captures(none) %8, ptr noundef captures(none) %9, ptr noundef writeonly captures(none) %10, ptr noundef captures(none) %11, ptr noundef captures(none) %12) local_unnamed_addr #4 {
  %14 = add i64 %1, 1
  %.not = icmp eq i64 %14, 0
  br i1 %.not, label %_ZN13duckdb_brotli21BrotliInitZopfliNodesEPNS_10ZopfliNodeEm.exit, label %15

15:                                               ; preds = %13
  %16 = shl i64 %14, 4
  %17 = tail call noundef ptr @_ZN13duckdb_brotli14BrotliAllocateEPNS_13MemoryManagerEm(ptr noundef %0, i64 noundef %16)
  br label %.lr.ph.i

.lr.ph.i:                                         ; preds = %15, %.lr.ph.i
  %.04.i = phi i64 [ %19, %.lr.ph.i ], [ 0, %15 ]
  %18 = getelementptr inbounds nuw %"struct.duckdb_brotli::ZopfliNode", ptr %17, i64 %.04.i
  store i32 1, ptr %18, align 4, !tbaa !3
  %.sroa.4.0..sroa_idx.i = getelementptr inbounds nuw i8, ptr %18, i64 4
  store i32 0, ptr %.sroa.4.0..sroa_idx.i, align 4, !tbaa !3
  %.sroa.5.0..sroa_idx.i = getelementptr inbounds nuw i8, ptr %18, i64 8
  store i32 0, ptr %.sroa.5.0..sroa_idx.i, align 4, !tbaa !3
  %.sroa.6.0..sroa_idx.i = getelementptr inbounds nuw i8, ptr %18, i64 12
  store float 0x47DFF933C0000000, ptr %.sroa.6.0..sroa_idx.i, align 4, !tbaa !7
  %19 = add nuw i64 %.04.i, 1
  %exitcond.not.i = icmp eq i64 %.04.i, %1
  br i1 %exitcond.not.i, label %_ZN13duckdb_brotli21BrotliInitZopfliNodesEPNS_10ZopfliNodeEm.exit, label %.lr.ph.i, !llvm.loop !8

_ZN13duckdb_brotli21BrotliInitZopfliNodesEPNS_10ZopfliNodeEm.exit: ; preds = %.lr.ph.i, %13
  %20 = phi ptr [ null, %13 ], [ %17, %.lr.ph.i ]
  %21 = tail call noundef i64 @_ZN13duckdb_brotli31BrotliZopfliComputeShortestPathEPNS_13MemoryManagerEmmPKhmS3_PK19BrotliEncoderParamsPKiPNS_6HasherEPNS_10ZopfliNodeE(ptr noundef %0, i64 noundef %1, i64 noundef %2, ptr noundef %3, i64 noundef %4, ptr noundef %5, ptr noundef %6, ptr noundef %8, ptr noundef %7, ptr noundef %20)
  %22 = load i64, ptr %11, align 8, !tbaa !35
  %23 = add i64 %22, %21
  store i64 %23, ptr %11, align 8, !tbaa !35
  tail call void @_ZN13duckdb_brotli26BrotliZopfliCreateCommandsEmmPKNS_10ZopfliNodeEPiPmPK19BrotliEncoderParamsPNS_7CommandES4_(i64 noundef %1, i64 noundef %2, ptr noundef %20, ptr noundef %8, ptr noundef %9, ptr noundef %6, ptr noundef %10, ptr noundef %12)
  tail call void @_ZN13duckdb_brotli10BrotliFreeEPNS_13MemoryManagerEPv(ptr noundef %0, ptr noundef %20)
  ret void
}